; ModuleID = '7/426.c'
source_filename = "7/426.c"
target datalayout = "e-m:e-p270:32:32-p271:32:32-p272:64:64-i64:64-f80:128-n8:16:32:64-S128"
target triple = "x86_64-pc-linux-gnu"

@.str = private unnamed_addr constant [3 x i8] c"%s\00", align 1
@.str.1 = private unnamed_addr constant [3 x i8] c"%c\00", align 1

; Function Attrs: noinline nounwind uwtable
define dso_local i32 @main() #0 {
  %1 = alloca i32, align 4
  %2 = alloca i32, align 4
  %3 = alloca i32, align 4
  %4 = alloca i32, align 4
  %5 = alloca i32, align 4
  %6 = alloca i32, align 4
  %7 = alloca i32, align 4
  %8 = alloca i32, align 4
  %9 = alloca [300 x i8], align 16
  %10 = alloca [300 x i8], align 16
  %11 = alloca [300 x i8], align 16
  store i32 0, i32* %1, align 4
  %12 = getelementptr inbounds [300 x i8], [300 x i8]* %9, i64 0, i64 0
  %13 = call i32 (i8*, ...) @__isoc99_scanf(i8* getelementptr inbounds ([3 x i8], [3 x i8]* @.str, i64 0, i64 0), i8* %12)
  %14 = getelementptr inbounds [300 x i8], [300 x i8]* %10, i64 0, i64 0
  %15 = call i32 (i8*, ...) @__isoc99_scanf(i8* getelementptr inbounds ([3 x i8], [3 x i8]* @.str, i64 0, i64 0), i8* %14)
  %16 = getelementptr inbounds [300 x i8], [300 x i8]* %11, i64 0, i64 0
  %17 = call i32 (i8*, ...) @__isoc99_scanf(i8* getelementptr inbounds ([3 x i8], [3 x i8]* @.str, i64 0, i64 0), i8* %16)
  %18 = getelementptr inbounds [300 x i8], [300 x i8]* %9, i64 0, i64 0
  %19 = call i64 @strlen(i8* %18) #3
  %20 = trunc i64 %19 to i32
  store i32 %20, i32* %6, align 4
  %21 = getelementptr inbounds [300 x i8], [300 x i8]* %10, i64 0, i64 0
  %22 = call i64 @strlen(i8* %21) #3
  %23 = trunc i64 %22 to i32
  store i32 %23, i32* %7, align 4
  %24 = getelementptr inbounds [300 x i8], [300 x i8]* %11, i64 0, i64 0
  %25 = call i64 @strlen(i8* %24) #3
  %26 = trunc i64 %25 to i32
  store i32 %26, i32* %8, align 4
  store i32 0, i32* %4, align 4
  store i32 0, i32* %2, align 4
  br label %27

27:                                               ; preds = %77, %0
  %28 = load i32, i32* %2, align 4
  %29 = load i32, i32* %6, align 4
  %30 = icmp slt i32 %28, %29
  br i1 %30, label %31, label %80

31:                                               ; preds = %27
  %32 = getelementptr inbounds [300 x i8], [300 x i8]* %10, i64 0, i64 0
  %33 = load i8, i8* %32, align 16
  %34 = sext i8 %33 to i32
  %35 = load i32, i32* %2, align 4
  %36 = sext i32 %35 to i64
  %37 = getelementptr inbounds [300 x i8], [300 x i8]* %9, i64 0, i64 %36
  %38 = load i8, i8* %37, align 1
  %39 = sext i8 %38 to i32
  %40 = icmp eq i32 %34, %39
  br i1 %40, label %41, label %71

41:                                               ; preds = %31
  %42 = load i32, i32* %4, align 4
  %43 = add nsw i32 %42, 1
  store i32 %43, i32* %4, align 4
  store i32 1, i32* %3, align 4
  br label %44

44:                                               ; preds = %67, %41
  %45 = load i32, i32* %3, align 4
  %46 = load i32, i32* %7, align 4
  %47 = icmp slt i32 %45, %46
  br i1 %47, label %48, label %70

48:                                               ; preds = %44
  %49 = load i32, i32* %2, align 4
  %50 = load i32, i32* %3, align 4
  %51 = add nsw i32 %49, %50
  %52 = sext i32 %51 to i64
  %53 = getelementptr inbounds [300 x i8], [300 x i8]* %9, i64 0, i64 %52
  %54 = load i8, i8* %53, align 1
  %55 = sext i8 %54 to i32
  %56 = load i32, i32* %3, align 4
  %57 = sext i32 %56 to i64
  %58 = getelementptr inbounds [300 x i8], [300 x i8]* %10, i64 0, i64 %57
  %59 = load i8, i8* %58, align 1
  %60 = sext i8 %59 to i32
  %61 = icmp eq i32 %55, %60
  br i1 %61, label %62, label %65

62:                                               ; preds = %48
  %63 = load i32, i32* %4, align 4
  %64 = add nsw i32 %63, 1
  store i32 %64, i32* %4, align 4
  br label %66

65:                                               ; preds = %48
  store i32 0, i32* %4, align 4
  br label %70

66:                                               ; preds = %62
  br label %67

67:                                               ; preds = %66
  %68 = load i32, i32* %3, align 4
  %69 = add nsw i32 %68, 1
  store i32 %69, i32* %3, align 4
  br label %44

70:                                               ; preds = %65, %44
  br label %71

71:                                               ; preds = %70, %31
  %72 = load i32, i32* %4, align 4
  %73 = load i32, i32* %7, align 4
  %74 = icmp eq i32 %72, %73
  br i1 %74, label %75, label %76

75:                                               ; preds = %71
  br label %80

76:                                               ; preds = %71
  br label %77

77:                                               ; preds = %76
  %78 = load i32, i32* %2, align 4
  %79 = add nsw i32 %78, 1
  store i32 %79, i32* %2, align 4
  br label %27

80:                                               ; preds = %75, %27
  store i32 0, i32* %3, align 4
  br label %81

81:                                               ; preds = %92, %80
  %82 = load i32, i32* %3, align 4
  %83 = load i32, i32* %2, align 4
  %84 = icmp slt i32 %82, %83
  br i1 %84, label %85, label %95

85:                                               ; preds = %81
  %86 = load i32, i32* %3, align 4
  %87 = sext i32 %86 to i64
  %88 = getelementptr inbounds [300 x i8], [300 x i8]* %9, i64 0, i64 %87
  %89 = load i8, i8* %88, align 1
  %90 = sext i8 %89 to i32
  %91 = call i32 (i8*, ...) @printf(i8* getelementptr inbounds ([3 x i8], [3 x i8]* @.str.1, i64 0, i64 0), i32 %90)
  br label %92

92:                                               ; preds = %85
  %93 = load i32, i32* %3, align 4
  %94 = add nsw i32 %93, 1
  store i32 %94, i32* %3, align 4
  br label %81

95:                                               ; preds = %81
  store i32 0, i32* %3, align 4
  br label %96

96:                                               ; preds = %113, %95
  %97 = load i32, i32* %2, align 4
  %98 = load i32, i32* %6, align 4
  %99 = icmp ne i32 %97, %98
  br i1 %99, label %100, label %104

100:                                              ; preds = %96
  %101 = load i32, i32* %3, align 4
  %102 = load i32, i32* %8, align 4
  %103 = icmp slt i32 %101, %102
  br label %104

104:                                              ; preds = %100, %96
  %105 = phi i1 [ false, %96 ], [ %103, %100 ]
  br i1 %105, label %106, label %116

106:                                              ; preds = %104
  %107 = load i32, i32* %3, align 4
  %108 = sext i32 %107 to i64
  %109 = getelementptr inbounds [300 x i8], [300 x i8]* %11, i64 0, i64 %108
  %110 = load i8, i8* %109, align 1
  %111 = sext i8 %110 to i32
  %112 = call i32 (i8*, ...) @printf(i8* getelementptr inbounds ([3 x i8], [3 x i8]* @.str.1, i64 0, i64 0), i32 %111)
  br label %113

113:                                              ; preds = %106
  %114 = load i32, i32* %3, align 4
  %115 = add nsw i32 %114, 1
  store i32 %115, i32* %3, align 4
  br label %96

116:                                              ; preds = %104
  %117 = load i32, i32* %2, align 4
  %118 = load i32, i32* %7, align 4
  %119 = add nsw i32 %117, %118
  store i32 %119, i32* %3, align 4
  br label %120

120:                                              ; preds = %131, %116
  %121 = load i32, i32* %3, align 4
  %122 = load i32, i32* %6, align 4
  %123 = icmp slt i32 %121, %122
  br i1 %123, label %124, label %134

124:                                              ; preds = %120
  %125 = load i32, i32* %3, align 4
  %126 = sext i32 %125 to i64
  %127 = getelementptr inbounds [300 x i8], [300 x i8]* %9, i64 0, i64 %126
  %128 = load i8, i8* %127, align 1
  %129 = sext i8 %128 to i32
  %130 = call i32 (i8*, ...) @printf(i8* getelementptr inbounds ([3 x i8], [3 x i8]* @.str.1, i64 0, i64 0), i32 %129)
  br label %131

131:                                              ; preds = %124
  %132 = load i32, i32* %3, align 4
  %133 = add nsw i32 %132, 1
  store i32 %133, i32* %3, align 4
  br label %120

134:                                              ; preds = %120
  ret i32 0
}

declare dso_local i32 @__isoc99_scanf(i8*, ...) #1

; Function Attrs: nounwind readonly
declare dso_local i64 @strlen(i8*) #2

declare dso_local i32 @printf(i8*, ...) #1


!llvm.module.flags = !{!0}
!llvm.ident = !{!1}

!0 = !{i32 1, !"wchar_size", i32 4}
!1 = !{!"clang version 10.0.0-4ubuntu1 "}
